target datalayout = "e-m:e-p270:32:32-p271:32:32-p272:64:64-i64:64-i128:128-f80:128-n8:16:32:64-S128"
target triple = "x86_64-pc-linux-gnu"

%struct.dirent = type { i64, i64, i16, i8, [256 x i8] }
%"class.SystemProcessInterface::SystemProcesses::ProcessIterator" = type <{ ptr, ptr, i8, [4096 x i8], [4096 x i8], [7 x i8] }>
%class.SystemProcess = type { ptr, i32, ptr, ptr, ptr, ptr }

@.str.7 = private unnamed_addr constant [13 x i8] c"/proc/%s/exe\00", align 1

; Function Attrs: mustprogress nounwind uwtable
define linkonce_odr hidden void @_ZN13SystemProcess16set_command_lineEPc(ptr noundef nonnull align 8 dereferenceable(48) %0, ptr noundef %1) #1 comdat align 2 {
  %3 = alloca ptr, align 8
  %4 = alloca ptr, align 8
  store ptr %0, ptr %3, align 8
  store ptr %1, ptr %4, align 8
  %5 = load ptr, ptr %3, align 8
  %6 = load ptr, ptr %4, align 8
  %7 = getelementptr inbounds %class.SystemProcess, ptr %5, i32 0, i32 4
  store ptr %6, ptr %7, align 8
  ret void
}

; Function Attrs: mustprogress nounwind uwtable
define linkonce_odr hidden void @_ZN13SystemProcess8set_pathEPc(ptr noundef nonnull align 8 dereferenceable(48) %0, ptr noundef %1) #1 comdat align 2 {
  %3 = alloca ptr, align 8
  %4 = alloca ptr, align 8
  store ptr %0, ptr %3, align 8
  store ptr %1, ptr %4, align 8
  %5 = load ptr, ptr %3, align 8
  %6 = load ptr, ptr %4, align 8
  %7 = getelementptr inbounds %class.SystemProcess, ptr %5, i32 0, i32 3
  store ptr %6, ptr %7, align 8
  ret void
}

; Function Attrs: mustprogress nounwind uwtable
define hidden noundef ptr @_ZN22SystemProcessInterface15SystemProcesses15ProcessIterator12get_exe_pathEv(ptr noundef nonnull align 8 dereferenceable(8209) %0) #1 align 2 {
  %2 = alloca ptr, align 8
  %3 = alloca [4096 x i8], align 16
  store ptr %0, ptr %2, align 8
  %4 = load ptr, ptr %2, align 8
  %5 = getelementptr inbounds [4096 x i8], ptr %3, i64 0, i64 0
  %6 = getelementptr inbounds %"class.SystemProcessInterface::SystemProcesses::ProcessIterator", ptr %4, i32 0, i32 1
  %7 = load ptr, ptr %6, align 8
  %8 = getelementptr inbounds %struct.dirent, ptr %7, i32 0, i32 4
  %9 = getelementptr inbounds [256 x i8], ptr %8, i64 0, i64 0
  %10 = call i32 (ptr, i64, ptr, ...) @jio_snprintf(ptr noundef %5, i64 noundef 4096, ptr noundef @.str.7, ptr noundef %9)
  %11 = getelementptr inbounds [4096 x i8], ptr %3, i64 0, i64 4095
  store i8 0, ptr %11, align 1
  %12 = getelementptr inbounds [4096 x i8], ptr %3, i64 0, i64 0
  %13 = getelementptr inbounds %"class.SystemProcessInterface::SystemProcesses::ProcessIterator", ptr %4, i32 0, i32 4
  %14 = getelementptr inbounds [4096 x i8], ptr %13, i64 0, i64 0
  %15 = call noundef ptr @_ZN2os5Posix8realpathEPKcPcm(ptr noundef %12, ptr noundef %14, i64 noundef 4096)
  ret ptr %15
}

; Function Attrs: mustprogress nounwind uwtable
define linkonce_odr hidden void @_ZN13SystemProcess8set_nameEPc(ptr noundef nonnull align 8 dereferenceable(48) %0, ptr noundef %1) #1 comdat align 2 {
  %3 = alloca ptr, align 8
  %4 = alloca ptr, align 8
  store ptr %0, ptr %3, align 8
  store ptr %1, ptr %4, align 8
  %5 = load ptr, ptr %3, align 8
  %6 = load ptr, ptr %4, align 8
  %7 = getelementptr inbounds %class.SystemProcess, ptr %5, i32 0, i32 2
  store ptr %6, ptr %7, align 8
  ret void
}

; Function Attrs: mustprogress nounwind uwtable
define hidden noundef ptr @_ZNK22SystemProcessInterface15SystemProcesses15ProcessIterator15allocate_stringEPKc(ptr noundef nonnull align 8 dereferenceable(8209) %0, ptr noundef %1) #1 align 2 {
  %3 = alloca ptr, align 8
  %4 = alloca ptr, align 8
  %5 = alloca ptr, align 8
  store ptr %0, ptr %4, align 8
  store ptr %1, ptr %5, align 8
  %6 = load ptr, ptr %5, align 8
  %7 = icmp ne ptr %6, null
  br i1 %7, label %8, label %11

8:                                                ; preds = %2
  %9 = load ptr, ptr %5, align 8
  %10 = call noundef ptr @_ZN2os16strdup_check_oomEPKc8MEMFLAGS(ptr noundef %9, i8 noundef zeroext 9)
  store ptr %10, ptr %3, align 8
  br label %12

11:                                               ; preds = %2
  store ptr null, ptr %3, align 8
  br label %12

12:                                               ; preds = %11, %8
  %13 = load ptr, ptr %3, align 8
  ret ptr %13
}

; Function Attrs: mustprogress nounwind uwtable
define linkonce_odr hidden void @_ZN13SystemProcess7set_pidEi(ptr noundef nonnull align 8 dereferenceable(48) %0, i32 noundef %1) #1 comdat align 2 {
  %3 = alloca ptr, align 8
  %4 = alloca i32, align 4
  store ptr %0, ptr %3, align 8
  store i32 %1, ptr %4, align 4
  %5 = load ptr, ptr %3, align 8
  %6 = load i32, ptr %4, align 4
  %7 = getelementptr inbounds %class.SystemProcess, ptr %5, i32 0, i32 1
  store i32 %6, ptr %7, align 8
  ret void
}

; Function Attrs: mustprogress nounwind uwtable
define linkonce_odr hidden noundef zeroext i1 @_ZNK22SystemProcessInterface15SystemProcesses15ProcessIterator8is_validEv(ptr noundef nonnull align 8 dereferenceable(8209) %0) #1 comdat align 2 {
  %2 = alloca ptr, align 8
  store ptr %0, ptr %2, align 8
  %3 = load ptr, ptr %2, align 8
  %4 = getelementptr inbounds %"class.SystemProcessInterface::SystemProcesses::ProcessIterator", ptr %3, i32 0, i32 2
  %5 = load i8, ptr %4, align 8
  %6 = trunc i8 %5 to i1
  ret i1 %6
}

; Function Attrs: mustprogress nounwind uwtable
define hidden noundef i32 @_ZN22SystemProcessInterface15SystemProcesses15ProcessIterator7currentEP13SystemProcess(ptr noundef nonnull align 8 dereferenceable(8209) %0, ptr noundef %1) #1 align 2 {
  %3 = alloca i32, align 4
  %4 = alloca ptr, align 8
  %5 = alloca ptr, align 8
  %6 = alloca ptr, align 8
  store ptr %0, ptr %4, align 8
  store ptr %1, ptr %5, align 8
  %7 = load ptr, ptr %4, align 8
  %8 = call noundef zeroext i1 @_ZNK22SystemProcessInterface15SystemProcesses15ProcessIterator8is_validEv(ptr noundef nonnull align 8 dereferenceable(8209) %7)
  br i1 %8, label %10, label %9

9:                                                ; preds = %2
  store i32 -1, ptr %3, align 4
  br label %38

10:                                               ; preds = %2
  %11 = load ptr, ptr %5, align 8
  %12 = getelementptr inbounds %"class.SystemProcessInterface::SystemProcesses::ProcessIterator", ptr %7, i32 0, i32 1
  %13 = load ptr, ptr %12, align 8
  %14 = getelementptr inbounds %struct.dirent, ptr %13, i32 0, i32 4
  %15 = getelementptr inbounds [256 x i8], ptr %14, i64 0, i64 0
  %16 = call i32 @atoi(ptr noundef %15) #9
  call void @_ZN13SystemProcess7set_pidEi(ptr noundef nonnull align 8 dereferenceable(48) %11, i32 noundef %16)
  call void @_ZN22SystemProcessInterface15SystemProcesses15ProcessIterator12get_exe_nameEv(ptr noundef nonnull align 8 dereferenceable(8209) %7)
  %17 = load ptr, ptr %5, align 8
  %18 = getelementptr inbounds %"class.SystemProcessInterface::SystemProcesses::ProcessIterator", ptr %7, i32 0, i32 3
  %19 = getelementptr inbounds [4096 x i8], ptr %18, i64 0, i64 0
  %20 = call noundef ptr @_ZNK22SystemProcessInterface15SystemProcesses15ProcessIterator15allocate_stringEPKc(ptr noundef nonnull align 8 dereferenceable(8209) %7, ptr noundef %19)
  call void @_ZN13SystemProcess8set_nameEPc(ptr noundef nonnull align 8 dereferenceable(48) %17, ptr noundef %20)
  %21 = call noundef ptr @_ZN22SystemProcessInterface15SystemProcesses15ProcessIterator12get_exe_pathEv(ptr noundef nonnull align 8 dereferenceable(8209) %7)
  %22 = icmp ne ptr %21, null
  br i1 %22, label %23, label %28

23:                                               ; preds = %10
  %24 = load ptr, ptr %5, align 8
  %25 = getelementptr inbounds %"class.SystemProcessInterface::SystemProcesses::ProcessIterator", ptr %7, i32 0, i32 4
  %26 = getelementptr inbounds [4096 x i8], ptr %25, i64 0, i64 0
  %27 = call noundef ptr @_ZNK22SystemProcessInterface15SystemProcesses15ProcessIterator15allocate_stringEPKc(ptr noundef nonnull align 8 dereferenceable(8209) %7, ptr noundef %26)
  call void @_ZN13SystemProcess8set_pathEPc(ptr noundef nonnull align 8 dereferenceable(48) %24, ptr noundef %27)
  br label %28

28:                                               ; preds = %23, %10
  store ptr null, ptr %6, align 8
  %29 = call noundef ptr @_ZN22SystemProcessInterface15SystemProcesses15ProcessIterator11get_cmdlineEv(ptr noundef nonnull align 8 dereferenceable(8209) %7)
  store ptr %29, ptr %6, align 8
  %30 = load ptr, ptr %6, align 8
  %31 = icmp ne ptr %30, null
  br i1 %31, label %32, label %37

32:                                               ; preds = %28
  %33 = load ptr, ptr %5, align 8
  %34 = load ptr, ptr %6, align 8
  %35 = call noundef ptr @_ZNK22SystemProcessInterface15SystemProcesses15ProcessIterator15allocate_stringEPKc(ptr noundef nonnull align 8 dereferenceable(8209) %7, ptr noundef %34)
  call void @_ZN13SystemProcess16set_command_lineEPc(ptr noundef nonnull align 8 dereferenceable(48) %33, ptr noundef %35)
  %36 = load ptr, ptr %6, align 8
  call void @_Z8FreeHeapPv(ptr noundef %36)
  br label %37

37:                                               ; preds = %32, %28
  store i32 0, ptr %3, align 4
  br label %38

38:                                               ; preds = %37, %9
  %39 = load i32, ptr %3, align 4
  ret i32 %39
}