; Function Attrs: mustprogress nounwind uwtable
define hidden noundef range(i32 -1, 1) i32 @_ZN22SystemProcessInterface15SystemProcesses15ProcessIterator7currentEP13SystemProcess(ptr noundef nonnull align 8 dereferenceable(8209) %0, ptr nocapture noundef writeonly %1) local_unnamed_addr #0 align 2 {
  %3 = alloca [4096 x i8], align 16
  %4 = getelementptr inbounds i8, ptr %0, i64 16
  %5 = load i8, ptr %4, align 8
  %6 = trunc i8 %5 to i1
  br i1 %6, label %7, label %29

7:                                                ; preds = %2
  %8 = getelementptr inbounds i8, ptr %0, i64 8
  %9 = load ptr, ptr %8, align 8
  %10 = getelementptr inbounds i8, ptr %9, i64 19
  %11 = tail call i32 @atoi(ptr nocapture noundef nonnull %10) #19
  %12 = getelementptr inbounds i8, ptr %1, i64 8
  store i32 %11, ptr %12, align 8
  tail call void @_ZN22SystemProcessInterface15SystemProcesses15ProcessIterator12get_exe_nameEv(ptr noundef nonnull align 8 dereferenceable(8209) %0)
  %13 = getelementptr inbounds i8, ptr %0, i64 17
  %14 = tail call noundef ptr @_ZN2os16strdup_check_oomEPKc8MEMFLAGS(ptr noundef nonnull %13, i8 noundef zeroext 9) #18
  %15 = getelementptr inbounds i8, ptr %1, i64 16
  store ptr %14, ptr %15, align 8
  call void @llvm.lifetime.start.p0(i64 4096, ptr nonnull %3)
  %16 = load ptr, ptr %8, align 8
  %17 = getelementptr inbounds i8, ptr %16, i64 19
  %18 = call i32 (ptr, i64, ptr, ...) @jio_snprintf(ptr noundef nonnull %3, i64 noundef 4096, ptr noundef nonnull @.str.7, ptr noundef nonnull %17) #18
  %19 = getelementptr inbounds i8, ptr %3, i64 4095
  store i8 0, ptr %19, align 1
  %20 = getelementptr inbounds i8, ptr %0, i64 4113
  %21 = call noundef ptr @_ZN2os5Posix8realpathEPKcPcm(ptr noundef nonnull %3, ptr noundef nonnull %20, i64 noundef 4096) #18
  call void @llvm.lifetime.end.p0(i64 4096, ptr nonnull %3)
  %.not = icmp eq ptr %21, null
  br i1 %.not, label %25, label %22

22:                                               ; preds = %7
  %23 = call noundef ptr @_ZN2os16strdup_check_oomEPKc8MEMFLAGS(ptr noundef nonnull %20, i8 noundef zeroext 9) #18
  %24 = getelementptr inbounds i8, ptr %1, i64 24
  store ptr %23, ptr %24, align 8
  br label %25

25:                                               ; preds = %22, %7
  %26 = call noundef ptr @_ZN22SystemProcessInterface15SystemProcesses15ProcessIterator11get_cmdlineEv(ptr noundef nonnull align 8 dereferenceable(8209) %0)
  %.not9 = icmp eq ptr %26, null
  br i1 %.not9, label %29, label %_ZNK22SystemProcessInterface15SystemProcesses15ProcessIterator15allocate_stringEPKc.exit

_ZNK22SystemProcessInterface15SystemProcesses15ProcessIterator15allocate_stringEPKc.exit: ; preds = %25
  %27 = call noundef ptr @_ZN2os16strdup_check_oomEPKc8MEMFLAGS(ptr noundef nonnull %26, i8 noundef zeroext 9) #18
  %28 = getelementptr inbounds i8, ptr %1, i64 32
  store ptr %27, ptr %28, align 8
  call void @_Z8FreeHeapPv(ptr noundef nonnull %26) #18
  br label %29

29:                                               ; preds = %25, %_ZNK22SystemProcessInterface15SystemProcesses15ProcessIterator15allocate_stringEPKc.exit, %2
  %.0 = phi i32 [ -1, %2 ], [ 0, %_ZNK22SystemProcessInterface15SystemProcesses15ProcessIterator15allocate_stringEPKc.exit ], [ 0, %25 ]
  ret i32 %.0
}